target datalayout = "e-m:e-p270:32:32-p271:32:32-p272:64:64-i64:64-i128:128-f80:128-n8:16:32:64-S128"
target triple = "x86_64-pc-linux-gnu"

%union.pthread_mutex_t = type { %struct.__pthread_mutex_s }
%struct.__pthread_mutex_s = type { i32, i32, i32, i32, i32, i16, i16, %struct.__pthread_internal_list }
%struct.__pthread_internal_list = type { ptr, ptr }
%struct.pmix_tma = type { ptr, ptr, ptr, ptr, ptr, ptr, ptr, ptr }
%struct.event = type { %struct.event_callback, %union.anon.0, i32, ptr, %union.anon.2, i16, i16, %struct.timeval }
%struct.event_callback = type { %struct.anon, i16, i8, i8, %union.anon, ptr }
%struct.anon = type { ptr, ptr }
%union.anon = type { ptr }
%union.anon.0 = type { %struct.anon.1 }
%struct.anon.1 = type { ptr, ptr }
%union.anon.2 = type { %struct.anon.3 }
%struct.anon.3 = type { %struct.anon.4, %struct.timeval }
%struct.anon.4 = type { ptr, ptr }
%struct.timeval = type { i64, i64 }
%struct.pmix_list_t = type { %struct.pmix_object_t, %struct.pmix_list_item_t, i64 }
%struct.pmix_object_t = type { %union.pthread_mutex_t, ptr, i32, %struct.pmix_tma }
%struct.pmix_list_item_t = type { %struct.pmix_object_t, ptr, ptr, i32 }
%struct.pmix_ptl_base_t = type { i8, i8, %struct.pmix_list_t, %struct.pmix_list_t, %struct.pmix_listener_t, ptr, i32, i64, ptr, ptr, ptr, ptr, ptr, ptr, ptr, ptr, ptr, ptr, ptr, ptr, i8, i8, i8, i8, i8, i8, i8, i8, i8, i8, i8, i8, i8, i8, ptr, ptr, i32, i8, i32, i8, i32, i32, i32, i32 }
%struct.pmix_listener_t = type { %struct.pmix_list_item_t, %struct.event, i8, i16, i32, ptr, ptr, i32, i8, i32, i8, i32, ptr }

@.str = private unnamed_addr constant [5 x i8] c"pmix\00", align 1
@.str.1 = private unnamed_addr constant [4 x i8] c"ptl\00", align 1
@.str.11 = private unnamed_addr constant [5 x i8] c"base\00", align 1
@.str.12 = private unnamed_addr constant [13 x i8] c"max_msg_size\00", align 1
@.str.13 = private unnamed_addr constant [44 x i8] c"Max size (in Mbytes) of a client/server msg\00", align 1
@max_msg_size = internal global i64 0, align 8
@.str.14 = private unnamed_addr constant [11 x i8] c"if_include\00", align 1
@.str.15 = private unnamed_addr constant [145 x i8] c"Comma-delimited list of devices and/or CIDR notation of TCP networks (e.g., \22eth0,192.168.0.0/16\22).  Mutually exclusive with ptl_tcp_if_exclude.\00", align 1
@.str.16 = private unnamed_addr constant [4 x i8] c"tcp\00", align 1
@.str.17 = private unnamed_addr constant [11 x i8] c"if_exclude\00", align 1
@.str.19 = private unnamed_addr constant [18 x i8] c"help-ptl-base.txt\00", align 1
@.str.20 = private unnamed_addr constant [16 x i8] c"include-exclude\00", align 1
@.str.21 = private unnamed_addr constant [10 x i8] c"ipv4_port\00", align 1
@.str.22 = private unnamed_addr constant [21 x i8] c"IPv4 port to be used\00", align 1
@.str.23 = private unnamed_addr constant [10 x i8] c"ipv6_port\00", align 1
@.str.24 = private unnamed_addr constant [21 x i8] c"IPv6 port to be used\00", align 1
@.str.25 = private unnamed_addr constant [20 x i8] c"disable_ipv4_family\00", align 1
@.str.26 = private unnamed_addr constant [28 x i8] c"Disable the IPv4 interfaces\00", align 1
@.str.27 = private unnamed_addr constant [20 x i8] c"disable_ipv6_family\00", align 1
@.str.28 = private unnamed_addr constant [47 x i8] c"Disable the IPv6 interfaces (default:disabled)\00", align 1
@.str.29 = private unnamed_addr constant [21 x i8] c"connection_wait_time\00", align 1
@.str.30 = private unnamed_addr constant [67 x i8] c"Number of seconds to wait for the server connection file to appear\00", align 1
@.str.31 = private unnamed_addr constant [12 x i8] c"max_retries\00", align 1
@.str.32 = private unnamed_addr constant [64 x i8] c"Number of times to look for the connection file before quitting\00", align 1
@.str.33 = private unnamed_addr constant [20 x i8] c"handshake_wait_time\00", align 1
@.str.34 = private unnamed_addr constant [72 x i8] c"Number of seconds to wait for the server reply to the handshake request\00", align 1
@.str.35 = private unnamed_addr constant [22 x i8] c"handshake_max_retries\00", align 1
@.str.36 = private unnamed_addr constant [64 x i8] c"Number of times to retry the handshake request before giving up\00", align 1
@.str.37 = private unnamed_addr constant [11 x i8] c"report_uri\00", align 1
@.str.38 = private unnamed_addr constant [51 x i8] c"Output URI [- => stdout, + => stderr, or filename]\00", align 1

; Function Attrs: nounwind uwtable
define internal i32 @pmix_ptl_register(i32 noundef %0) #0 {
  %2 = alloca i32, align 4
  %3 = alloca i32, align 4
  %4 = alloca i32, align 4
  %5 = alloca i32, align 4
  store i32 %0, ptr %3, align 4, !tbaa !3
  call void @llvm.lifetime.start.p0(i64 4, ptr %4) #12
  %6 = call i32 @pmix_mca_base_var_register(ptr noundef @.str, ptr noundef @.str.1, ptr noundef @.str.11, ptr noundef @.str.12, ptr noundef @.str.13, i32 noundef 4, ptr noundef @max_msg_size)
  %7 = load i64, ptr @max_msg_size, align 8, !tbaa !7
  %8 = mul i64 %7, 1024
  %9 = mul i64 %8, 1024
  store i64 %9, ptr getelementptr inbounds nuw (%struct.pmix_ptl_base_t, ptr @pmix_ptl_base, i32 0, i32 7), align 8, !tbaa !9
  %10 = call i32 @pmix_mca_base_var_register(ptr noundef @.str, ptr noundef @.str.1, ptr noundef @.str.11, ptr noundef @.str.14, ptr noundef @.str.15, i32 noundef 5, ptr noundef getelementptr inbounds nuw (%struct.pmix_ptl_base_t, ptr @pmix_ptl_base, i32 0, i32 34))
  store i32 %10, ptr %4, align 4, !tbaa !3
  %11 = load i32, ptr %4, align 4, !tbaa !3
  %12 = call i32 @pmix_mca_base_var_register_synonym(i32 noundef %11, ptr noundef @.str, ptr noundef @.str.1, ptr noundef @.str.16, ptr noundef @.str.14, i32 noundef 1)
  %13 = call i32 @pmix_mca_base_var_register(ptr noundef @.str, ptr noundef @.str.1, ptr noundef @.str.11, ptr noundef @.str.17, ptr noundef @.str.18, i32 noundef 5, ptr noundef getelementptr inbounds nuw (%struct.pmix_ptl_base_t, ptr @pmix_ptl_base, i32 0, i32 35))
  store i32 %13, ptr %4, align 4, !tbaa !3
  %14 = load i32, ptr %4, align 4, !tbaa !3
  %15 = call i32 @pmix_mca_base_var_register_synonym(i32 noundef %14, ptr noundef @.str, ptr noundef @.str.1, ptr noundef @.str.16, ptr noundef @.str.17, i32 noundef 1)
  %16 = load ptr, ptr getelementptr inbounds nuw (%struct.pmix_ptl_base_t, ptr @pmix_ptl_base, i32 0, i32 34), align 8, !tbaa !30
  %17 = icmp ne ptr null, %16
  br i1 %17, label %18, label %25

18:                                               ; preds = %1
  %19 = load ptr, ptr getelementptr inbounds nuw (%struct.pmix_ptl_base_t, ptr @pmix_ptl_base, i32 0, i32 35), align 8, !tbaa !31
  %20 = icmp ne ptr null, %19
  br i1 %20, label %21, label %25

21:                                               ; preds = %18
  %22 = load ptr, ptr getelementptr inbounds nuw (%struct.pmix_ptl_base_t, ptr @pmix_ptl_base, i32 0, i32 34), align 8, !tbaa !30
  %23 = load ptr, ptr getelementptr inbounds nuw (%struct.pmix_ptl_base_t, ptr @pmix_ptl_base, i32 0, i32 35), align 8, !tbaa !31
  %24 = call i32 (ptr, ptr, i32, ...) @pmix_show_help(ptr noundef @.str.19, ptr noundef @.str.20, i32 noundef 1, ptr noundef %22, ptr noundef %23)
  store i32 -64, ptr %2, align 4
  store i32 1, ptr %5, align 4
  br label %53

25:                                               ; preds = %18, %1
  %26 = call i32 @pmix_mca_base_var_register(ptr noundef @.str, ptr noundef @.str.1, ptr noundef @.str.11, ptr noundef @.str.21, ptr noundef @.str.22, i32 noundef 0, ptr noundef getelementptr inbounds nuw (%struct.pmix_ptl_base_t, ptr @pmix_ptl_base, i32 0, i32 36))
  store i32 %26, ptr %4, align 4, !tbaa !3
  %27 = load i32, ptr %4, align 4, !tbaa !3
  %28 = call i32 @pmix_mca_base_var_register_synonym(i32 noundef %27, ptr noundef @.str, ptr noundef @.str.1, ptr noundef @.str.16, ptr noundef @.str.21, i32 noundef 1)
  %29 = call i32 @pmix_mca_base_var_register(ptr noundef @.str, ptr noundef @.str.1, ptr noundef @.str.11, ptr noundef @.str.23, ptr noundef @.str.24, i32 noundef 0, ptr noundef getelementptr inbounds nuw (%struct.pmix_ptl_base_t, ptr @pmix_ptl_base, i32 0, i32 38))
  store i32 %29, ptr %4, align 4, !tbaa !3
  %30 = load i32, ptr %4, align 4, !tbaa !3
  %31 = call i32 @pmix_mca_base_var_register_synonym(i32 noundef %30, ptr noundef @.str, ptr noundef @.str.1, ptr noundef @.str.16, ptr noundef @.str.23, i32 noundef 1)
  %32 = call i32 @pmix_mca_base_var_register(ptr noundef @.str, ptr noundef @.str.1, ptr noundef @.str.11, ptr noundef @.str.25, ptr noundef @.str.26, i32 noundef 7, ptr noundef getelementptr inbounds nuw (%struct.pmix_ptl_base_t, ptr @pmix_ptl_base, i32 0, i32 37))
  store i32 %32, ptr %4, align 4, !tbaa !3
  %33 = load i32, ptr %4, align 4, !tbaa !3
  %34 = call i32 @pmix_mca_base_var_register_synonym(i32 noundef %33, ptr noundef @.str, ptr noundef @.str.1, ptr noundef @.str.16, ptr noundef @.str.25, i32 noundef 1)
  store i8 1, ptr getelementptr inbounds nuw (%struct.pmix_ptl_base_t, ptr @pmix_ptl_base, i32 0, i32 39), align 4, !tbaa !32
  %35 = call i32 @pmix_mca_base_var_register(ptr noundef @.str, ptr noundef @.str.1, ptr noundef @.str.11, ptr noundef @.str.27, ptr noundef @.str.28, i32 noundef 7, ptr noundef getelementptr inbounds nuw (%struct.pmix_ptl_base_t, ptr @pmix_ptl_base, i32 0, i32 39))
  store i32 %35, ptr %4, align 4, !tbaa !3
  %36 = load i32, ptr %4, align 4, !tbaa !3
  %37 = call i32 @pmix_mca_base_var_register_synonym(i32 noundef %36, ptr noundef @.str, ptr noundef @.str.1, ptr noundef @.str.16, ptr noundef @.str.27, i32 noundef 1)
  %38 = call i32 @pmix_mca_base_var_register(ptr noundef @.str, ptr noundef @.str.1, ptr noundef @.str.11, ptr noundef @.str.29, ptr noundef @.str.30, i32 noundef 0, ptr noundef getelementptr inbounds nuw (%struct.pmix_ptl_base_t, ptr @pmix_ptl_base, i32 0, i32 41))
  store i32 %38, ptr %4, align 4, !tbaa !3
  %39 = load i32, ptr %4, align 4, !tbaa !3
  %40 = call i32 @pmix_mca_base_var_register_synonym(i32 noundef %39, ptr noundef @.str, ptr noundef @.str.1, ptr noundef @.str.16, ptr noundef @.str.29, i32 noundef 1)
  %41 = call i32 @pmix_mca_base_var_register(ptr noundef @.str, ptr noundef @.str.1, ptr noundef @.str.11, ptr noundef @.str.31, ptr noundef @.str.32, i32 noundef 0, ptr noundef getelementptr inbounds nuw (%struct.pmix_ptl_base_t, ptr @pmix_ptl_base, i32 0, i32 40))
  store i32 %41, ptr %4, align 4, !tbaa !3
  %42 = load i32, ptr %4, align 4, !tbaa !3
  %43 = call i32 @pmix_mca_base_var_register_synonym(i32 noundef %42, ptr noundef @.str, ptr noundef @.str.1, ptr noundef @.str.16, ptr noundef @.str.31, i32 noundef 1)
  %44 = call i32 @pmix_mca_base_var_register(ptr noundef @.str, ptr noundef @.str.1, ptr noundef @.str.11, ptr noundef @.str.33, ptr noundef @.str.34, i32 noundef 0, ptr noundef getelementptr inbounds nuw (%struct.pmix_ptl_base_t, ptr @pmix_ptl_base, i32 0, i32 42))
  store i32 %44, ptr %4, align 4, !tbaa !3
  %45 = load i32, ptr %4, align 4, !tbaa !3
  %46 = call i32 @pmix_mca_base_var_register_synonym(i32 noundef %45, ptr noundef @.str, ptr noundef @.str.1, ptr noundef @.str.16, ptr noundef @.str.33, i32 noundef 1)
  %47 = call i32 @pmix_mca_base_var_register(ptr noundef @.str, ptr noundef @.str.1, ptr noundef @.str.11, ptr noundef @.str.35, ptr noundef @.str.36, i32 noundef 0, ptr noundef getelementptr inbounds nuw (%struct.pmix_ptl_base_t, ptr @pmix_ptl_base, i32 0, i32 43))
  store i32 %47, ptr %4, align 4, !tbaa !3
  %48 = load i32, ptr %4, align 4, !tbaa !3
  %49 = call i32 @pmix_mca_base_var_register_synonym(i32 noundef %48, ptr noundef @.str, ptr noundef @.str.1, ptr noundef @.str.16, ptr noundef @.str.35, i32 noundef 1)
  %50 = call i32 @pmix_mca_base_var_register(ptr noundef @.str, ptr noundef @.str.1, ptr noundef @.str.11, ptr noundef @.str.37, ptr noundef @.str.38, i32 noundef 5, ptr noundef getelementptr inbounds nuw (%struct.pmix_ptl_base_t, ptr @pmix_ptl_base, i32 0, i32 10))
  store i32 %50, ptr %4, align 4, !tbaa !3
  %51 = load i32, ptr %4, align 4, !tbaa !3
  %52 = call i32 @pmix_mca_base_var_register_synonym(i32 noundef %51, ptr noundef @.str, ptr noundef @.str.1, ptr noundef @.str.16, ptr noundef @.str.37, i32 noundef 1)
  store i32 0, ptr %2, align 4
  store i32 1, ptr %5, align 4
  br label %53

53:                                               ; preds = %25, %21
  call void @llvm.lifetime.end.p0(i64 4, ptr %4) #12
  %54 = load i32, ptr %2, align 4
  ret i32 %54
}