; Function Attrs: nounwind uwtable
define internal range(i32 -64, 1) i32 @pmix_ptl_register(i32 %0) #0 {
  %2 = tail call i32 @pmix_mca_base_var_register(ptr noundef nonnull @.str, ptr noundef nonnull @.str.1, ptr noundef nonnull @.str.11, ptr noundef nonnull @.str.12, ptr noundef nonnull @.str.13, i32 noundef 4, ptr noundef nonnull @max_msg_size) #16
  %3 = load i64, ptr @max_msg_size, align 8, !tbaa !3
  %4 = shl i64 %3, 20
  store i64 %4, ptr getelementptr inbounds nuw (i8, ptr @pmix_ptl_base, i64 896), align 8, !tbaa !7
  %5 = tail call i32 @pmix_mca_base_var_register(ptr noundef nonnull @.str, ptr noundef nonnull @.str.1, ptr noundef nonnull @.str.11, ptr noundef nonnull @.str.14, ptr noundef nonnull @.str.15, i32 noundef 5, ptr noundef nonnull getelementptr inbounds nuw (i8, ptr @pmix_ptl_base, i64 1016)) #16
  %6 = tail call i32 @pmix_mca_base_var_register_synonym(i32 noundef %5, ptr noundef nonnull @.str, ptr noundef nonnull @.str.1, ptr noundef nonnull @.str.16, ptr noundef nonnull @.str.14, i32 noundef 1) #16
  %7 = tail call i32 @pmix_mca_base_var_register(ptr noundef nonnull @.str, ptr noundef nonnull @.str.1, ptr noundef nonnull @.str.11, ptr noundef nonnull @.str.17, ptr noundef nonnull @.str.18, i32 noundef 5, ptr noundef nonnull getelementptr inbounds nuw (i8, ptr @pmix_ptl_base, i64 1024)) #16
  %8 = tail call i32 @pmix_mca_base_var_register_synonym(i32 noundef %7, ptr noundef nonnull @.str, ptr noundef nonnull @.str.1, ptr noundef nonnull @.str.16, ptr noundef nonnull @.str.17, i32 noundef 1) #16
  %9 = load ptr, ptr getelementptr inbounds nuw (i8, ptr @pmix_ptl_base, i64 1016), align 8, !tbaa !29
  %10 = icmp ne ptr %9, null
  %11 = load ptr, ptr getelementptr inbounds nuw (i8, ptr @pmix_ptl_base, i64 1024), align 8
  %12 = icmp ne ptr %11, null
  %or.cond = select i1 %10, i1 %12, i1 false
  br i1 %or.cond, label %13, label %15

13:                                               ; preds = %1
  %14 = tail call i32 (ptr, ptr, i32, ...) @pmix_show_help(ptr noundef nonnull @.str.19, ptr noundef nonnull @.str.20, i32 noundef 1, ptr noundef nonnull %9, ptr noundef nonnull %11) #16
  br label %34

15:                                               ; preds = %1
  %16 = tail call i32 @pmix_mca_base_var_register(ptr noundef nonnull @.str, ptr noundef nonnull @.str.1, ptr noundef nonnull @.str.11, ptr noundef nonnull @.str.21, ptr noundef nonnull @.str.22, i32 noundef 0, ptr noundef nonnull getelementptr inbounds nuw (i8, ptr @pmix_ptl_base, i64 1032)) #16
  %17 = tail call i32 @pmix_mca_base_var_register_synonym(i32 noundef %16, ptr noundef nonnull @.str, ptr noundef nonnull @.str.1, ptr noundef nonnull @.str.16, ptr noundef nonnull @.str.21, i32 noundef 1) #16
  %18 = tail call i32 @pmix_mca_base_var_register(ptr noundef nonnull @.str, ptr noundef nonnull @.str.1, ptr noundef nonnull @.str.11, ptr noundef nonnull @.str.23, ptr noundef nonnull @.str.24, i32 noundef 0, ptr noundef nonnull getelementptr inbounds nuw (i8, ptr @pmix_ptl_base, i64 1040)) #16
  %19 = tail call i32 @pmix_mca_base_var_register_synonym(i32 noundef %18, ptr noundef nonnull @.str, ptr noundef nonnull @.str.1, ptr noundef nonnull @.str.16, ptr noundef nonnull @.str.23, i32 noundef 1) #16
  %20 = tail call i32 @pmix_mca_base_var_register(ptr noundef nonnull @.str, ptr noundef nonnull @.str.1, ptr noundef nonnull @.str.11, ptr noundef nonnull @.str.25, ptr noundef nonnull @.str.26, i32 noundef 7, ptr noundef nonnull getelementptr inbounds nuw (i8, ptr @pmix_ptl_base, i64 1036)) #16
  %21 = tail call i32 @pmix_mca_base_var_register_synonym(i32 noundef %20, ptr noundef nonnull @.str, ptr noundef nonnull @.str.1, ptr noundef nonnull @.str.16, ptr noundef nonnull @.str.25, i32 noundef 1) #16
  store i8 1, ptr getelementptr inbounds nuw (i8, ptr @pmix_ptl_base, i64 1044), align 4, !tbaa !30
  %22 = tail call i32 @pmix_mca_base_var_register(ptr noundef nonnull @.str, ptr noundef nonnull @.str.1, ptr noundef nonnull @.str.11, ptr noundef nonnull @.str.27, ptr noundef nonnull @.str.28, i32 noundef 7, ptr noundef nonnull getelementptr inbounds nuw (i8, ptr @pmix_ptl_base, i64 1044)) #16
  %23 = tail call i32 @pmix_mca_base_var_register_synonym(i32 noundef %22, ptr noundef nonnull @.str, ptr noundef nonnull @.str.1, ptr noundef nonnull @.str.16, ptr noundef nonnull @.str.27, i32 noundef 1) #16
  %24 = tail call i32 @pmix_mca_base_var_register(ptr noundef nonnull @.str, ptr noundef nonnull @.str.1, ptr noundef nonnull @.str.11, ptr noundef nonnull @.str.29, ptr noundef nonnull @.str.30, i32 noundef 0, ptr noundef nonnull getelementptr inbounds nuw (i8, ptr @pmix_ptl_base, i64 1052)) #16
  %25 = tail call i32 @pmix_mca_base_var_register_synonym(i32 noundef %24, ptr noundef nonnull @.str, ptr noundef nonnull @.str.1, ptr noundef nonnull @.str.16, ptr noundef nonnull @.str.29, i32 noundef 1) #16
  %26 = tail call i32 @pmix_mca_base_var_register(ptr noundef nonnull @.str, ptr noundef nonnull @.str.1, ptr noundef nonnull @.str.11, ptr noundef nonnull @.str.31, ptr noundef nonnull @.str.32, i32 noundef 0, ptr noundef nonnull getelementptr inbounds nuw (i8, ptr @pmix_ptl_base, i64 1048)) #16
  %27 = tail call i32 @pmix_mca_base_var_register_synonym(i32 noundef %26, ptr noundef nonnull @.str, ptr noundef nonnull @.str.1, ptr noundef nonnull @.str.16, ptr noundef nonnull @.str.31, i32 noundef 1) #16
  %28 = tail call i32 @pmix_mca_base_var_register(ptr noundef nonnull @.str, ptr noundef nonnull @.str.1, ptr noundef nonnull @.str.11, ptr noundef nonnull @.str.33, ptr noundef nonnull @.str.34, i32 noundef 0, ptr noundef nonnull getelementptr inbounds nuw (i8, ptr @pmix_ptl_base, i64 1056)) #16
  %29 = tail call i32 @pmix_mca_base_var_register_synonym(i32 noundef %28, ptr noundef nonnull @.str, ptr noundef nonnull @.str.1, ptr noundef nonnull @.str.16, ptr noundef nonnull @.str.33, i32 noundef 1) #16
  %30 = tail call i32 @pmix_mca_base_var_register(ptr noundef nonnull @.str, ptr noundef nonnull @.str.1, ptr noundef nonnull @.str.11, ptr noundef nonnull @.str.35, ptr noundef nonnull @.str.36, i32 noundef 0, ptr noundef nonnull getelementptr inbounds nuw (i8, ptr @pmix_ptl_base, i64 1060)) #16
  %31 = tail call i32 @pmix_mca_base_var_register_synonym(i32 noundef %30, ptr noundef nonnull @.str, ptr noundef nonnull @.str.1, ptr noundef nonnull @.str.16, ptr noundef nonnull @.str.35, i32 noundef 1) #16
  %32 = tail call i32 @pmix_mca_base_var_register(ptr noundef nonnull @.str, ptr noundef nonnull @.str.1, ptr noundef nonnull @.str.11, ptr noundef nonnull @.str.37, ptr noundef nonnull @.str.38, i32 noundef 5, ptr noundef nonnull getelementptr inbounds nuw (i8, ptr @pmix_ptl_base, i64 920)) #16
  %33 = tail call i32 @pmix_mca_base_var_register_synonym(i32 noundef %32, ptr noundef nonnull @.str, ptr noundef nonnull @.str.1, ptr noundef nonnull @.str.16, ptr noundef nonnull @.str.37, i32 noundef 1) #16
  br label %34

34:                                               ; preds = %15, %13
  %.0 = phi i32 [ -64, %13 ], [ 0, %15 ]
  ret i32 %.0
}